target datalayout = "e-m:e-p270:32:32-p271:32:32-p272:64:64-i64:64-i128:128-f80:128-n8:16:32:64-S128"
target triple = "x86_64-unknown-linux-gnu"

%union.pthread_mutex_t = type { %struct.__pthread_mutex_s }
%struct.__pthread_mutex_s = type { i32, i32, i32, i32, i32, i16, i16, %struct.__pthread_internal_list }
%struct.__pthread_internal_list = type { ptr, ptr }
%struct.QTailQLink = type { ptr, ptr }
%struct.QemuMutex = type { %union.pthread_mutex_t, i8 }
%struct.CPUState = type { %struct.DeviceState, ptr, i32, i32, ptr, i32, i8, i8, ptr, i8, i8, i8, i8, i8, i8, i8, i8, i32, i32, i32, i32, i64, i64, i64, [1 x %struct.__jmp_buf_tag], %struct.QemuMutex, %struct.anon.5, ptr, i32, ptr, ptr, ptr, ptr, i32, i32, %union.anon.6, %union.anon.7, %union.anon.8, ptr, ptr, i64, i32, ptr, ptr, ptr, i32, i64, i32, %struct.QemuLockCnt, [1 x i64], ptr, i32, i32, i32, i32, i32, ptr, i8, i8, i64, i8, i8, ptr, [8 x i8], [0 x i8], %struct.CPUNegativeOffsetState }
%struct.DeviceState = type { %struct.Object, ptr, ptr, i8, i8, i64, ptr, i32, i8, ptr, %struct.NamedGPIOListHead, %struct.NamedClockListHead, %struct.BusStateHead, i32, i32, i32, %struct.ResettableState, ptr, %struct.MemReentrancyGuard }
%struct.Object = type { ptr, ptr, ptr, i32, ptr }
%struct.NamedGPIOListHead = type { ptr }
%struct.NamedClockListHead = type { ptr }
%struct.BusStateHead = type { ptr }
%struct.ResettableState = type { i32, i8, i8 }
%struct.MemReentrancyGuard = type { i8 }
%struct.__jmp_buf_tag = type { [8 x i64], i32, %struct.__sigset_t }
%struct.__sigset_t = type { [16 x i64] }
%struct.anon.5 = type { ptr, ptr }
%union.anon.6 = type { %struct.QTailQLink }
%union.anon.7 = type { %struct.QTailQLink }
%union.anon.8 = type { %struct.QTailQLink }
%struct.QemuLockCnt = type { i32 }
%struct.CPUNegativeOffsetState = type { %struct.CPUTLB, %union.IcountDecr, i8, [11 x i8] }
%struct.CPUTLB = type { %struct.CPUTLBCommon, [16 x %struct.CPUTLBDesc], [16 x %struct.CPUTLBDescFast] }
%struct.CPUTLBCommon = type { %struct.QemuSpin, i16, i64, i64, i64 }
%struct.QemuSpin = type { i32 }
%struct.CPUTLBDesc = type { i64, i64, i64, i64, i64, i64, [8 x %union.CPUTLBEntry], [8 x %struct.CPUTLBEntryFull], ptr }
%union.CPUTLBEntry = type { %struct.anon.9 }
%struct.anon.9 = type { i64, i64, i64, i64 }
%struct.CPUTLBEntryFull = type { i64, i64, %struct.MemTxAttrs, i8, i8, [3 x i8], %union.anon.10 }
%struct.MemTxAttrs = type { i32 }
%union.anon.10 = type { %struct.anon.11 }
%struct.anon.11 = type { i8, i8, i8 }
%struct.CPUTLBDescFast = type { i64, ptr }
%union.IcountDecr = type { i32 }
%struct.RISCVCPUConfig = type { i8, i8, i8, i8, i8, i8, i8, i8, i8, i8, i8, i8, i8, i8, i8, i8, i8, i8, i8, i8, i8, i8, i8, i8, i8, i8, i8, i8, i8, i8, i8, i8, i8, i8, i8, i8, i8, i8, i8, i8, i8, i8, i8, i8, i8, i8, i8, i8, i8, i8, i8, i8, i8, i8, i8, i8, i8, i8, i8, i8, i8, i8, i8, i8, i8, i8, i8, i8, i8, i8, i8, i8, i8, i8, i8, i8, i8, i8, i32, i64, i64, i8, i8, i8, i8, i8, i8, i8, i8, i8, i8, i8, i8, i32, ptr, ptr, ptr, ptr, i16, i16, i16, i16, i8, i8, i8, i8, i8 }
%struct.CPUArchState = type { [32 x i64], [32 x i64], [512 x i64], i64, i64, i64, i64, i64, i8, i64, i64, i64, [32 x i64], i64, %struct.float_status, i64, i64, i64, i64, i64, i64, i32, i32, i32, i32, i32, i64, i64, i32, i64, i64, ptr, ptr, i8, i64, i64, [8 x i8] }
%struct.float_status = type { i16, i8, i8, i8, i8, i8, i8, i8, i8, i8, i8, i8 }
%struct.ArchCPU = type { %struct.CPUState, %struct.CPUArchState, ptr, ptr, %struct.RISCVCPUConfig, ptr, i32, ptr }

@.str.621 = private unnamed_addr constant [5 x i8] c"sv32\00", align 1
@.str.622 = private unnamed_addr constant [5 x i8] c"sv48\00", align 1
@.str.623 = private unnamed_addr constant [5 x i8] c"none\00", align 1
@.str.624 = private unnamed_addr constant [16 x i8] c"processor\09: %d\0A\00", align 1
@.str.625 = private unnamed_addr constant [12 x i8] c"hart\09\09: %d\0A\00", align 1
@.str.626 = private unnamed_addr constant [11 x i8] c"isa\09\09: %s\0A\00", align 1
@.str.627 = private unnamed_addr constant [11 x i8] c"mmu\09\09: %s\0A\00", align 1
@.str.628 = private unnamed_addr constant [16 x i8] c"uarch\09\09: qemu\0A\0A\00", align 1

; Function Attrs: nounwind sspstrong uwtable
define internal ptr @riscv_cpu_cfg(ptr noundef %env) #0 {
entry:
  %env.addr = alloca ptr, align 8
  store ptr %env, ptr %env.addr, align 8
  %0 = load ptr, ptr %env.addr, align 8
  %call = call ptr @env_archcpu(ptr noundef %0)
  %cfg = getelementptr inbounds %struct.ArchCPU, ptr %call, i32 0, i32 4
  ret ptr %cfg
}

; Function Attrs: nounwind sspstrong uwtable
define internal ptr @env_archcpu(ptr noundef %env) #0 {
entry:
  %env.addr = alloca ptr, align 8
  store ptr %env, ptr %env.addr, align 8
  %0 = load ptr, ptr %env.addr, align 8
  %add.ptr = getelementptr i8, ptr %0, i64 -10176
  ret ptr %add.ptr
}

; Function Attrs: nounwind sspstrong uwtable
define internal i32 @open_cpuinfo(ptr noundef %cpu_env, i32 noundef %fd) #0 {
entry:
  %cpu_env.addr = alloca ptr, align 8
  %fd.addr = alloca i32, align 4
  %i = alloca i32, align 4
  %num_cpus = alloca i32, align 4
  %cpu = alloca ptr, align 8
  %cfg = alloca ptr, align 8
  %isa_string = alloca ptr, align 8
  %mmu = alloca ptr, align 8
  store ptr %cpu_env, ptr %cpu_env.addr, align 8
  store i32 %fd, ptr %fd.addr, align 4
  %call = call i64 @sysconf(i32 noundef 84) #14
  %conv = trunc i64 %call to i32
  store i32 %conv, ptr %num_cpus, align 4
  %0 = load ptr, ptr %cpu_env.addr, align 8
  %call1 = call ptr @env_archcpu(ptr noundef %0)
  store ptr %call1, ptr %cpu, align 8
  %1 = load ptr, ptr %cpu_env.addr, align 8
  %call2 = call ptr @riscv_cpu_cfg(ptr noundef %1)
  store ptr %call2, ptr %cfg, align 8
  %2 = load ptr, ptr %cpu, align 8
  %call3 = call ptr @riscv_isa_string(ptr noundef %2)
  store ptr %call3, ptr %isa_string, align 8
  %3 = load ptr, ptr %cfg, align 8
  %mmu4 = getelementptr inbounds %struct.RISCVCPUConfig, ptr %3, i32 0, i32 102
  %4 = load i8, ptr %mmu4, align 8
  %tobool = trunc i8 %4 to i1
  br i1 %tobool, label %if.then, label %if.else

if.then:                                          ; preds = %entry
  %5 = load ptr, ptr %cpu_env.addr, align 8
  %xl = getelementptr inbounds %struct.CPUArchState, ptr %5, i32 0, i32 25
  %6 = load i32, ptr %xl, align 16
  %cmp = icmp eq i32 %6, 1
  %cond = select i1 %cmp, ptr @.str.621, ptr @.str.622
  store ptr %cond, ptr %mmu, align 8
  br label %if.end

if.else:                                          ; preds = %entry
  store ptr @.str.623, ptr %mmu, align 8
  br label %if.end

if.end:                                           ; preds = %if.else, %if.then
  store i32 0, ptr %i, align 4
  br label %for.cond

for.cond:                                         ; preds = %for.inc, %if.end
  %7 = load i32, ptr %i, align 4
  %8 = load i32, ptr %num_cpus, align 4
  %cmp6 = icmp slt i32 %7, %8
  br i1 %cmp6, label %for.body, label %for.end

for.body:                                         ; preds = %for.cond
  %9 = load i32, ptr %fd.addr, align 4
  %10 = load i32, ptr %i, align 4
  %call8 = call i32 (i32, ptr, ...) @dprintf(i32 noundef %9, ptr noundef @.str.624, i32 noundef %10)
  %11 = load i32, ptr %fd.addr, align 4
  %12 = load i32, ptr %i, align 4
  %call9 = call i32 (i32, ptr, ...) @dprintf(i32 noundef %11, ptr noundef @.str.625, i32 noundef %12)
  %13 = load i32, ptr %fd.addr, align 4
  %14 = load ptr, ptr %isa_string, align 8
  %call10 = call i32 (i32, ptr, ...) @dprintf(i32 noundef %13, ptr noundef @.str.626, ptr noundef %14)
  %15 = load i32, ptr %fd.addr, align 4
  %16 = load ptr, ptr %mmu, align 8
  %call11 = call i32 (i32, ptr, ...) @dprintf(i32 noundef %15, ptr noundef @.str.627, ptr noundef %16)
  %17 = load i32, ptr %fd.addr, align 4
  %call12 = call i32 (i32, ptr, ...) @dprintf(i32 noundef %17, ptr noundef @.str.628)
  br label %for.inc

for.inc:                                          ; preds = %for.body
  %18 = load i32, ptr %i, align 4
  %inc = add i32 %18, 1
  store i32 %inc, ptr %i, align 4
  br label %for.cond, !llvm.loop !17

for.end:                                          ; preds = %for.cond
  %19 = load ptr, ptr %isa_string, align 8
  call void @g_free(ptr noundef %19)
  ret i32 0
}