; Function Attrs: nounwind sspstrong uwtable
define internal noundef i32 @open_cpuinfo(ptr noundef %cpu_env, i32 noundef %fd) #2 {
entry:
  %call = tail call i64 @sysconf(i32 noundef 84) #27
  %conv = trunc i64 %call to i32
  %add.ptr.i = getelementptr i8, ptr %cpu_env, i64 -10176
  %call3 = tail call ptr @riscv_isa_string(ptr noundef %add.ptr.i) #27
  %mmu4 = getelementptr i8, ptr %cpu_env, i64 5296
  %0 = load i8, ptr %mmu4, align 8
  %tobool = trunc i8 %0 to i1
  br i1 %tobool, label %if.then, label %if.end

if.then:                                          ; preds = %entry
  %xl = getelementptr inbounds nuw i8, ptr %cpu_env, i64 5024
  %1 = load i32, ptr %xl, align 16
  %cmp = icmp eq i32 %1, 1
  %cond = select i1 %cmp, ptr @.str.621, ptr @.str.622
  br label %if.end

if.end:                                           ; preds = %entry, %if.then
  %mmu.0 = phi ptr [ %cond, %if.then ], [ @.str.623, %entry ]
  %cmp611 = icmp sgt i32 %conv, 0
  br i1 %cmp611, label %for.body, label %for.end

for.body:                                         ; preds = %if.end, %for.body
  %i.012 = phi i32 [ %inc, %for.body ], [ 0, %if.end ]
  %call8 = tail call i32 (i32, ptr, ...) @dprintf(i32 noundef %fd, ptr noundef nonnull @.str.624, i32 noundef %i.012) #27
  %call9 = tail call i32 (i32, ptr, ...) @dprintf(i32 noundef %fd, ptr noundef nonnull @.str.625, i32 noundef %i.012) #27
  %call10 = tail call i32 (i32, ptr, ...) @dprintf(i32 noundef %fd, ptr noundef nonnull @.str.626, ptr noundef %call3) #27
  %call11 = tail call i32 (i32, ptr, ...) @dprintf(i32 noundef %fd, ptr noundef nonnull @.str.627, ptr noundef nonnull %mmu.0) #27
  %call12 = tail call i32 (i32, ptr, ...) @dprintf(i32 noundef %fd, ptr noundef nonnull @.str.628) #27
  %inc = add nuw nsw i32 %i.012, 1
  %exitcond.not = icmp eq i32 %inc, %conv
  br i1 %exitcond.not, label %for.end, label %for.body, !llvm.loop !17

for.end:                                          ; preds = %for.body, %if.end
  tail call void @g_free(ptr noundef %call3) #27
  ret i32 0
}